target datalayout = "e-m:e-p270:32:32-p271:32:32-p272:64:64-i64:64-i128:128-f80:128-n8:16:32:64-S128"
target triple = "x86_64-pc-linux-gnu"

; Function Attrs: nounwind uwtable
define internal ptr @git_config_val_system(i32 noundef %0) #0 {
  %2 = alloca ptr, align 8
  %3 = alloca i32, align 4
  %4 = alloca ptr, align 8
  store i32 %0, ptr %3, align 4, !tbaa !4
  %5 = call i32 @git_config_system()
  %6 = icmp ne i32 %5, 0
  br i1 %6, label %7, label %13

7:                                                ; preds = %1
  call void @llvm.lifetime.start.p0(i64 8, ptr %4) #9
  %8 = call ptr @git_system_config()
  store ptr %8, ptr %4, align 8, !tbaa !11
  %9 = load ptr, ptr %4, align 8, !tbaa !11
  %10 = load ptr, ptr %4, align 8, !tbaa !11
  %11 = call i32 @normalize_path_copy(ptr noundef %9, ptr noundef %10)
  %12 = load ptr, ptr %4, align 8, !tbaa !11
  store ptr %12, ptr %2, align 8
  call void @llvm.lifetime.end.p0(i64 8, ptr %4) #9
  br label %14

13:                                               ; preds = %1
  store ptr null, ptr %2, align 8
  br label %14

14:                                               ; preds = %13, %7
  %15 = load ptr, ptr %2, align 8
  ret ptr %15
}