; Function Attrs: nounwind uwtable
define internal noundef ptr @git_config_val_system(i32 %0) #0 {
  %2 = tail call i32 @git_config_system() #10
  %.not = icmp eq i32 %2, 0
  br i1 %.not, label %6, label %3

3:                                                ; preds = %1
  %4 = tail call ptr @git_system_config() #10
  %5 = tail call i32 @normalize_path_copy(ptr noundef %4, ptr noundef %4) #10
  br label %6

6:                                                ; preds = %1, %3
  %.0 = phi ptr [ %4, %3 ], [ null, %1 ]
  ret ptr %.0
}